target datalayout = "e-m:e-p270:32:32-p271:32:32-p272:64:64-i64:64-i128:128-f80:128-n8:16:32:64-S128"
target triple = "x86_64-pc-linux-gnu"

%struct.Exid_s = type { %struct.dtlink_s_, i64, i64, i64, i64, ptr, ptr, [32 x i8] }
%struct.dtlink_s_ = type { ptr, %union.anon }
%union.anon = type { ptr }

@codePhase = internal global i32 0, align 4
@.str.174 = private unnamed_addr constant [38 x i8] c"unknown dynamic type %ld of symbol %s\00", align 1
@.str.175 = private unnamed_addr constant [50 x i8] c"keyword %s cannot be used in BEGIN/END statements\00", align 1
@.str.176 = private unnamed_addr constant [56 x i8] c"keyword %s cannot be used in BEGIN/BEG_G/END statements\00", align 1
@.str.177 = private unnamed_addr constant [82 x i8] c"undeclared, unmodified names like \22%s\22 cannot be\0Aused in BEGIN and END statements\00", align 1
@.str.178 = private unnamed_addr constant [47 x i8] c"unexpected symbol in typeChk: name %s, lex %ld\00", align 1

; Function Attrs: nounwind uwtable
define internal zeroext i16 @typeChk(i16 noundef zeroext %0, ptr noundef %1) #0 {
  %3 = alloca i16, align 2
  %4 = alloca ptr, align 8
  %5 = alloca i16, align 2
  %6 = alloca i16, align 2
  store i16 %0, ptr %3, align 2, !tbaa !46
  store ptr %1, ptr %4, align 8, !tbaa !107
  call void @llvm.lifetime.start.p0(i64 2, ptr %5) #16
  store i16 0, ptr %5, align 2, !tbaa !46
  call void @llvm.lifetime.start.p0(i64 2, ptr %6) #16
  store i16 0, ptr %6, align 2, !tbaa !46
  %7 = load ptr, ptr %4, align 8, !tbaa !107
  %8 = getelementptr inbounds nuw %struct.Exid_s, ptr %7, i32 0, i32 1
  %9 = load i64, ptr %8, align 8, !tbaa !123
  switch i64 %9, label %89 [
    i64 274, label %10
    i64 282, label %29
    i64 286, label %75
  ]

10:                                               ; preds = %2
  store i16 0, ptr %5, align 2, !tbaa !46
  %11 = load ptr, ptr %4, align 8, !tbaa !107
  %12 = getelementptr inbounds nuw %struct.Exid_s, ptr %11, i32 0, i32 3
  %13 = load i64, ptr %12, align 8, !tbaa !42
  switch i64 %13, label %21 [
    i64 30, label %14
    i64 27, label %15
    i64 29, label %16
    i64 28, label %17
    i64 259, label %18
    i64 262, label %19
    i64 263, label %20
  ]

14:                                               ; preds = %10
  store i16 112, ptr %6, align 2, !tbaa !46
  br label %28

15:                                               ; preds = %10
  store i16 16, ptr %6, align 2, !tbaa !46
  br label %28

16:                                               ; preds = %10
  store i16 64, ptr %6, align 2, !tbaa !46
  br label %28

17:                                               ; preds = %10
  store i16 32, ptr %6, align 2, !tbaa !46
  br label %28

18:                                               ; preds = %10
  store i16 4, ptr %6, align 2, !tbaa !46
  br label %28

19:                                               ; preds = %10
  store i16 2, ptr %6, align 2, !tbaa !46
  br label %28

20:                                               ; preds = %10
  store i16 8, ptr %6, align 2, !tbaa !46
  br label %28

21:                                               ; preds = %10
  %22 = load ptr, ptr %4, align 8, !tbaa !107
  %23 = getelementptr inbounds nuw %struct.Exid_s, ptr %22, i32 0, i32 3
  %24 = load i64, ptr %23, align 8, !tbaa !42
  %25 = load ptr, ptr %4, align 8, !tbaa !107
  %26 = getelementptr inbounds nuw %struct.Exid_s, ptr %25, i32 0, i32 7
  %27 = getelementptr inbounds [32 x i8], ptr %26, i64 0, i64 0
  call void (ptr, ...) @exerror(ptr noundef @.str.174, i64 noundef %24, ptr noundef %27)
  br label %28

28:                                               ; preds = %21, %20, %19, %18, %17, %16, %15, %14
  br label %96

29:                                               ; preds = %2
  %30 = load ptr, ptr %4, align 8, !tbaa !107
  %31 = getelementptr inbounds nuw %struct.Exid_s, ptr %30, i32 0, i32 2
  %32 = load i64, ptr %31, align 8, !tbaa !112
  %33 = icmp sle i64 %32, 138
  br i1 %33, label %34, label %73

34:                                               ; preds = %29
  %35 = load ptr, ptr %4, align 8, !tbaa !107
  %36 = getelementptr inbounds nuw %struct.Exid_s, ptr %35, i32 0, i32 2
  %37 = load i64, ptr %36, align 8, !tbaa !112
  switch i64 %37, label %60 [
    i64 8, label %38
    i64 1, label %38
    i64 2, label %38
    i64 3, label %38
    i64 4, label %49
  ]

38:                                               ; preds = %34, %34, %34, %34
  %39 = load i32, ptr @codePhase, align 4, !tbaa !26
  %40 = icmp sle i32 1, %39
  br i1 %40, label %41, label %44

41:                                               ; preds = %38
  %42 = load i32, ptr @codePhase, align 4, !tbaa !26
  %43 = icmp sle i32 %42, 4
  br i1 %43, label %48, label %44

44:                                               ; preds = %41, %38
  %45 = load ptr, ptr %4, align 8, !tbaa !107
  %46 = getelementptr inbounds nuw %struct.Exid_s, ptr %45, i32 0, i32 7
  %47 = getelementptr inbounds [32 x i8], ptr %46, i64 0, i64 0
  call void (ptr, ...) @exerror(ptr noundef @.str.175, ptr noundef %47)
  br label %48

48:                                               ; preds = %44, %41
  br label %60

49:                                               ; preds = %34
  %50 = load i32, ptr @codePhase, align 4, !tbaa !26
  %51 = icmp sle i32 2, %50
  br i1 %51, label %52, label %55

52:                                               ; preds = %49
  %53 = load i32, ptr @codePhase, align 4, !tbaa !26
  %54 = icmp sle i32 %53, 4
  br i1 %54, label %59, label %55

55:                                               ; preds = %52, %49
  %56 = load ptr, ptr %4, align 8, !tbaa !107
  %57 = getelementptr inbounds nuw %struct.Exid_s, ptr %56, i32 0, i32 7
  %58 = getelementptr inbounds [32 x i8], ptr %57, i64 0, i64 0
  call void (ptr, ...) @exerror(ptr noundef @.str.176, ptr noundef %58)
  br label %59

59:                                               ; preds = %55, %52
  br label %60

60:                                               ; preds = %34, %59, %48
  %61 = load ptr, ptr %4, align 8, !tbaa !107
  %62 = getelementptr inbounds nuw %struct.Exid_s, ptr %61, i32 0, i32 2
  %63 = load i64, ptr %62, align 8, !tbaa !112
  %64 = getelementptr inbounds [27 x [2 x i16]], ptr @tchk, i64 0, i64 %63
  %65 = getelementptr inbounds [2 x i16], ptr %64, i64 0, i64 0
  %66 = load i16, ptr %65, align 4, !tbaa !46
  store i16 %66, ptr %5, align 2, !tbaa !46
  %67 = load ptr, ptr %4, align 8, !tbaa !107
  %68 = getelementptr inbounds nuw %struct.Exid_s, ptr %67, i32 0, i32 2
  %69 = load i64, ptr %68, align 8, !tbaa !112
  %70 = getelementptr inbounds [27 x [2 x i16]], ptr @tchk, i64 0, i64 %69
  %71 = getelementptr inbounds [2 x i16], ptr %70, i64 0, i64 1
  %72 = load i16, ptr %71, align 2, !tbaa !46
  store i16 %72, ptr %6, align 2, !tbaa !46
  br label %74

73:                                               ; preds = %29
  store i16 112, ptr %5, align 2, !tbaa !46
  store i16 8, ptr %6, align 2, !tbaa !46
  br label %74

74:                                               ; preds = %73, %60
  br label %96

75:                                               ; preds = %2
  %76 = load i16, ptr %3, align 2, !tbaa !46
  %77 = icmp ne i16 %76, 0
  br i1 %77, label %88, label %78

78:                                               ; preds = %75
  %79 = load i32, ptr @codePhase, align 4, !tbaa !26
  %80 = icmp sle i32 1, %79
  br i1 %80, label %81, label %84

81:                                               ; preds = %78
  %82 = load i32, ptr @codePhase, align 4, !tbaa !26
  %83 = icmp sle i32 %82, 4
  br i1 %83, label %88, label %84

84:                                               ; preds = %81, %78
  %85 = load ptr, ptr %4, align 8, !tbaa !107
  %86 = getelementptr inbounds nuw %struct.Exid_s, ptr %85, i32 0, i32 7
  %87 = getelementptr inbounds [32 x i8], ptr %86, i64 0, i64 0
  call void (ptr, ...) @exerror(ptr noundef @.str.177, ptr noundef %87)
  br label %88

88:                                               ; preds = %84, %81, %75
  store i16 112, ptr %5, align 2, !tbaa !46
  store i16 8, ptr %6, align 2, !tbaa !46
  br label %96

89:                                               ; preds = %2
  %90 = load ptr, ptr %4, align 8, !tbaa !107
  %91 = getelementptr inbounds nuw %struct.Exid_s, ptr %90, i32 0, i32 7
  %92 = getelementptr inbounds [32 x i8], ptr %91, i64 0, i64 0
  %93 = load ptr, ptr %4, align 8, !tbaa !107
  %94 = getelementptr inbounds nuw %struct.Exid_s, ptr %93, i32 0, i32 1
  %95 = load i64, ptr %94, align 8, !tbaa !123
  call void (ptr, ...) @exerror(ptr noundef @.str.178, ptr noundef %92, i64 noundef %95)
  br label %96

96:                                               ; preds = %89, %88, %74, %28
  %97 = load i16, ptr %5, align 2, !tbaa !46
  %98 = icmp ne i16 %97, 0
  br i1 %98, label %99, label %112

99:                                               ; preds = %96
  %100 = load i16, ptr %3, align 2, !tbaa !46
  %101 = icmp ne i16 %100, 0
  br i1 %101, label %103, label %102

102:                                              ; preds = %99
  store i16 112, ptr %3, align 2, !tbaa !46
  br label %103

103:                                              ; preds = %102, %99
  %104 = load i16, ptr %5, align 2, !tbaa !46
  %105 = zext i16 %104 to i32
  %106 = load i16, ptr %3, align 2, !tbaa !46
  %107 = zext i16 %106 to i32
  %108 = and i32 %105, %107
  %109 = icmp ne i32 %108, 0
  br i1 %109, label %111, label %110

110:                                              ; preds = %103
  store i16 0, ptr %6, align 2, !tbaa !46
  br label %111

111:                                              ; preds = %110, %103
  br label %117

112:                                              ; preds = %96
  %113 = load i16, ptr %3, align 2, !tbaa !46
  %114 = icmp ne i16 %113, 0
  br i1 %114, label %115, label %116

115:                                              ; preds = %112
  store i16 0, ptr %6, align 2, !tbaa !46
  br label %116

116:                                              ; preds = %115, %112
  br label %117

117:                                              ; preds = %116, %111
  %118 = load i16, ptr %6, align 2, !tbaa !46
  call void @llvm.lifetime.end.p0(i64 2, ptr %6) #16
  call void @llvm.lifetime.end.p0(i64 2, ptr %5) #16
  ret i16 %118
}