; Function Attrs: nounwind uwtable
define internal fastcc zeroext i16 @typeChk(i16 noundef zeroext %0, ptr noundef %1) unnamed_addr #0 {
  %3 = getelementptr inbounds nuw i8, ptr %1, i64 16
  %4 = load i64, ptr %3, align 8, !tbaa !105
  switch i64 %4, label %33 [
    i64 274, label %5
    i64 282, label %16
    i64 286, label %27
  ]

5:                                                ; preds = %2
  %6 = getelementptr inbounds nuw i8, ptr %1, i64 32
  %7 = load i64, ptr %6, align 8, !tbaa !58
  switch i64 %7, label %14 [
    i64 30, label %.thread
    i64 27, label %8
    i64 29, label %9
    i64 28, label %10
    i64 259, label %11
    i64 262, label %12
    i64 263, label %13
  ]

8:                                                ; preds = %5
  br label %.thread

9:                                                ; preds = %5
  br label %.thread

10:                                               ; preds = %5
  br label %.thread

11:                                               ; preds = %5
  br label %.thread

12:                                               ; preds = %5
  br label %.thread

13:                                               ; preds = %5
  br label %.thread

14:                                               ; preds = %5
  %15 = getelementptr inbounds nuw i8, ptr %1, i64 64
  tail call void (ptr, ...) @exerror(ptr noundef nonnull @.str.174, i64 noundef %7, ptr noundef nonnull %15) #25
  br label %.thread

16:                                               ; preds = %2
  %17 = getelementptr inbounds nuw i8, ptr %1, i64 24
  %18 = load i64, ptr %17, align 8, !tbaa !94
  %19 = icmp slt i64 %18, 139
  br i1 %19, label %20, label %.thread36

20:                                               ; preds = %16
  switch i64 %18, label %36 [
    i64 8, label %21
    i64 1, label %21
    i64 2, label %21
    i64 3, label %21
    i64 4, label %24
  ]

21:                                               ; preds = %20, %20, %20, %20
  %22 = load i32, ptr @codePhase, align 4, !tbaa !43
  %23 = add i32 %22, -1
  %or.cond = icmp ult i32 %23, 4
  br i1 %or.cond, label %36, label %.sink.split

24:                                               ; preds = %20
  %25 = load i32, ptr @codePhase, align 4, !tbaa !43
  %26 = add i32 %25, -2
  %or.cond3 = icmp ult i32 %26, 3
  br i1 %or.cond3, label %36, label %.sink.split

27:                                               ; preds = %2
  %.not = icmp eq i16 %0, 0
  br i1 %.not, label %28, label %.thread36

28:                                               ; preds = %27
  %29 = load i32, ptr @codePhase, align 4, !tbaa !43
  %30 = add i32 %29, -1
  %or.cond5 = icmp ult i32 %30, 4
  br i1 %or.cond5, label %.thread36, label %31

31:                                               ; preds = %28
  %32 = getelementptr inbounds nuw i8, ptr %1, i64 64
  tail call void (ptr, ...) @exerror(ptr noundef nonnull @.str.177, ptr noundef nonnull %32) #25
  br label %.thread36

33:                                               ; preds = %2
  %34 = getelementptr inbounds nuw i8, ptr %1, i64 64
  tail call void (ptr, ...) @exerror(ptr noundef nonnull @.str.178, ptr noundef nonnull %34, i64 noundef %4) #25
  br label %.thread

.sink.split:                                      ; preds = %24, %21
  %.str.175.sink = phi ptr [ @.str.175, %21 ], [ @.str.176, %24 ]
  %35 = getelementptr inbounds nuw i8, ptr %1, i64 64
  tail call void (ptr, ...) @exerror(ptr noundef nonnull %.str.175.sink, ptr noundef nonnull %35) #25
  br label %36

36:                                               ; preds = %.sink.split, %20, %21, %24
  %37 = load i64, ptr %17, align 8, !tbaa !94
  %38 = getelementptr inbounds [27 x [2 x i16]], ptr @tchk, i64 0, i64 %37
  %39 = load i16, ptr %38, align 4, !tbaa !62
  %40 = getelementptr inbounds nuw i8, ptr %38, i64 2
  %41 = load i16, ptr %40, align 2, !tbaa !62
  %.not26 = icmp eq i16 %39, 0
  br i1 %.not26, label %.thread, label %.thread36

.thread36:                                        ; preds = %27, %31, %28, %16, %36
  %.041 = phi i16 [ %41, %36 ], [ 8, %16 ], [ 8, %28 ], [ 8, %31 ], [ 8, %27 ]
  %.02440 = phi i16 [ %39, %36 ], [ 112, %16 ], [ 112, %28 ], [ 112, %31 ], [ 112, %27 ]
  %.not28 = icmp eq i16 %0, 0
  %spec.store.select = select i1 %.not28, i16 112, i16 %0
  %42 = and i16 %.02440, %spec.store.select
  %.not29 = icmp eq i16 %42, 0
  %spec.select = select i1 %.not29, i16 0, i16 %.041
  br label %43

.thread:                                          ; preds = %5, %8, %9, %10, %11, %12, %13, %14, %33, %36
  %.034 = phi i16 [ %41, %36 ], [ 112, %5 ], [ 16, %8 ], [ 64, %9 ], [ 32, %10 ], [ 4, %11 ], [ 2, %12 ], [ 8, %13 ], [ 0, %14 ], [ 0, %33 ]
  %.not27 = icmp eq i16 %0, 0
  %spec.select30 = select i1 %.not27, i16 %.034, i16 0
  br label %43

43:                                               ; preds = %.thread, %.thread36
  %.1 = phi i16 [ %spec.select, %.thread36 ], [ %spec.select30, %.thread ]
  ret i16 %.1
}